(dp1
S'OriginalConfig'
p2
ccopy_reg
_reconstructor
p3
(cWMCore.Configuration
Configuration
p4
c__builtin__
object
p5
NtRp6
(dp7
S'Site'
p8
g3
(cWMCore.Configuration
ConfigSection
p9
g5
NtRp10
(dp11
S'_internal_skipChecks'
p12
I00
sS'_internal_documentation'
p13
S''
sS'_internal_settings'
p14
c__builtin__
set
p15
((lp16
S'storageSite'
p17
atRp18
sS'_internal_name'
p19
g8
sS'_internal_docstrings'
p20
(dp21
sS'_internal_children'
p22
g15
((ltRp23
sg17
S'T2_IT_Legnaro'
p24
sS'_internal_parent_ref'
p25
NsbsS'_internal_sections'
p26
(lp27
S'General'
p28
aS'JobType'
p29
aS'Data'
p30
ag8
asg28
g3
(g9
g5
NtRp31
(dp32
S'transferLogs'
p33
I01
sg12
I00
sg13
S''
sg14
g15
((lp34
g33
aS'transferOutputs'
p35
aS'workArea'
p36
aS'requestName'
p37
atRp38
sg19
g28
sg20
(dp39
sg35
I01
sg22
g15
((ltRp40
sg37
S'MC13TeV_TTJets'
p41
sg25
Nsg36
S'my_grid'
p42
sbsS'_internal_webapps'
p43
(lp44
sS'_internal_components'
p45
(lp46
sg30
g3
(g9
g5
NtRp47
(dp48
S'inputDataset'
p49
S'/TT_TuneCUETP8M2T4_13TeV-powheg-pythia8/RunIISummer17MiniAOD-92X_upgrade2017_realistic_v10_ext1-v2/MINIAODSIM'
p50
sS'outputDatasetTag'
p51
S'November2017_MC_analysis'
p52
sg12
I00
sS'splitting'
p53
S'FileBased'
p54
sS'unitsPerJob'
p55
I2
sg13
S''
sg14
g15
((lp56
g49
ag51
aS'publication'
p57
ag55
aS'ignoreLocality'
p58
aS'inputDBS'
p59
ag53
atRp60
sg58
I00
sg19
g30
sg59
S'global'
p61
sg20
(dp62
sg22
g15
((ltRp63
sg25
Nsg57
I01
sbsg29
g3
(g9
g5
NtRp64
(dp65
g12
I00
sS'pyCfgParams'
p66
(lp67
S'runOnData=False'
p68
asg13
S''
sg14
g15
((lp69
S'psetName'
p70
aS'pluginName'
p71
aS'inputFiles'
p72
ag66
aS'disableAutomaticOutputCollection'
p73
atRp74
sg19
g29
sg20
(dp75
sg71
S'Analysis'
p76
sg22
g15
((ltRp77
sg70
S'/afs/cern.ch/user/q/qhassan/workQhassan/TOPLJets2017/CMSSW_9_2_3/src/TopLJets2015/TopAnalysis/test/runMiniAnalyzer_cfg.py'
p78
sg25
Nsg72
(lp79
S'jec_MC.db'
p80
asg73
I00
sbsbsS'voGroup'
p81
S''
sS'Server'
p82
S'cmsweb.cern.ch'
p83
sS'instance'
p84
S'prod'
p85
sS'RequestName'
p86
V171115_170317:qhassan_crab_MC13TeV_TTJets
p87
sS'voRole'
p88
S'NULL'
p89
sS'Port'
p90
S''
s.