(dp1
S'OriginalConfig'
p2
ccopy_reg
_reconstructor
p3
(cWMCore.Configuration
Configuration
p4
c__builtin__
object
p5
NtRp6
(dp7
S'Site'
p8
g3
(cWMCore.Configuration
ConfigSection
p9
g5
NtRp10
(dp11
S'_internal_skipChecks'
p12
I00
sS'_internal_documentation'
p13
S''
sS'_internal_settings'
p14
c__builtin__
set
p15
((lp16
S'storageSite'
p17
atRp18
sS'_internal_name'
p19
g8
sS'_internal_docstrings'
p20
(dp21
sS'_internal_children'
p22
g15
((ltRp23
sg17
S'T2_IT_Legnaro'
p24
sS'_internal_parent_ref'
p25
NsbsS'_internal_sections'
p26
(lp27
S'General'
p28
aS'JobType'
p29
aS'Data'
p30
ag8
asg28
g3
(g9
g5
NtRp31
(dp32
g12
I00
sg13
S''
sg14
g15
((lp33
S'transferOutputs'
p34
aS'workArea'
p35
aS'requestName'
p36
atRp37
sg19
g28
sg20
(dp38
sg34
I01
sg22
g15
((ltRp39
sg36
S'Data13TeV_DoubleMuon_2017BPromptv2'
p40
sg25
Nsg35
S'my_grid'
p41
sbsS'_internal_webapps'
p42
(lp43
sS'_internal_components'
p44
(lp45
sg30
g3
(g9
g5
NtRp46
(dp47
S'inputDataset'
p48
S'/DoubleMuon/Run2017B-PromptReco-v2/MINIAOD'
p49
sg12
I00
sS'splitting'
p50
S'LumiBased'
p51
sS'unitsPerJob'
p52
I5
sg13
S''
sg14
g15
((lp53
g48
aS'publication'
p54
ag52
aS'ignoreLocality'
p55
ag50
aS'inputDBS'
p56
aS'lumiMask'
p57
atRp58
sg55
I00
sg19
g30
sg56
S'global'
p59
sg20
(dp60
sg22
g15
((ltRp61
sg25
Nsg57
S'/afs/cern.ch/cms/CAF/CMSCOMM/COMM_DQM/certification/Collisions17/13TeV/PromptReco/Cert_294927-302343_13TeV_PromptReco_Collisions17_JSON.txt'
p62
sg54
I01
sbsg29
g3
(g9
g5
NtRp63
(dp64
g12
I00
sS'pyCfgParams'
p65
(lp66
S'runOnData=True'
p67
asg13
S''
sg14
g15
((lp68
S'psetName'
p69
aS'pluginName'
p70
aS'inputFiles'
p71
ag65
aS'disableAutomaticOutputCollection'
p72
atRp73
sg19
g29
sg20
(dp74
sg70
S'Analysis'
p75
sg22
g15
((ltRp76
sg69
S'/afs/cern.ch/user/q/qhassan/workQhassan/TOPLJets2017/CMSSW_9_2_3/src/TopLJets2015/TopAnalysis/test/runMiniAnalyzer_cfg.py'
p77
sg25
Nsg71
(lp78
S'jec_DATA.db'
p79
asg72
I00
sbsbsS'voGroup'
p80
S''
sS'Server'
p81
S'cmsweb.cern.ch'
p82
sS'instance'
p83
S'prod'
p84
sS'RequestName'
p85
V171112_164626:qhassan_crab_Data13TeV_DoubleMuon_2017BPromptv2
p86
sS'voRole'
p87
S'NULL'
p88
sS'Port'
p89
S''
s.